; ModuleID = '20/441.c'
source_filename = "20/441.c"
target datalayout = "e-m:e-p270:32:32-p271:32:32-p272:64:64-i64:64-f80:128-n8:16:32:64-S128"
target triple = "x86_64-pc-linux-gnu"

@.str = private unnamed_addr constant [6 x i8] c"%s %s\00", align 1
@.str.1 = private unnamed_addr constant [4 x i8] c"%s\0A\00", align 1

; Function Attrs: noinline nounwind uwtable
define dso_local void @main() #0 {
  %1 = alloca i32, align 4
  %2 = alloca i32, align 4
  %3 = alloca [11 x i8], align 1
  %4 = alloca [4 x i8], align 1
  %5 = alloca [14 x i8], align 1
  %6 = alloca i8, align 1
  br label %7

7:                                                ; preds = %40, %0
  %8 = getelementptr inbounds [11 x i8], [11 x i8]* %3, i64 0, i64 0
  %9 = getelementptr inbounds [4 x i8], [4 x i8]* %4, i64 0, i64 0
  %10 = call i32 (i8*, ...) @__isoc99_scanf(i8* getelementptr inbounds ([6 x i8], [6 x i8]* @.str, i64 0, i64 0), i8* %8, i8* %9)
  %11 = icmp ne i32 %10, -1
  br i1 %11, label %12, label %60

12:                                               ; preds = %7
  %13 = getelementptr inbounds [11 x i8], [11 x i8]* %3, i64 0, i64 0
  %14 = load i8, i8* %13, align 1
  store i8 %14, i8* %6, align 1
  store i32 0, i32* %1, align 4
  store i32 0, i32* %2, align 4
  br label %15

15:                                               ; preds = %37, %12
  %16 = load i32, i32* %2, align 4
  %17 = sext i32 %16 to i64
  %18 = getelementptr inbounds [11 x i8], [11 x i8]* %3, i64 0, i64 0
  %19 = call i64 @strlen(i8* %18) #4
  %20 = icmp ule i64 %17, %19
  br i1 %20, label %21, label %40

21:                                               ; preds = %15
  %22 = load i32, i32* %2, align 4
  %23 = sext i32 %22 to i64
  %24 = getelementptr inbounds [11 x i8], [11 x i8]* %3, i64 0, i64 %23
  %25 = load i8, i8* %24, align 1
  %26 = sext i8 %25 to i32
  %27 = load i8, i8* %6, align 1
  %28 = sext i8 %27 to i32
  %29 = icmp sgt i32 %26, %28
  br i1 %29, label %30, label %36

30:                                               ; preds = %21
  %31 = load i32, i32* %2, align 4
  store i32 %31, i32* %1, align 4
  %32 = load i32, i32* %2, align 4
  %33 = sext i32 %32 to i64
  %34 = getelementptr inbounds [11 x i8], [11 x i8]* %3, i64 0, i64 %33
  %35 = load i8, i8* %34, align 1
  store i8 %35, i8* %6, align 1
  br label %36

36:                                               ; preds = %30, %21
  br label %37

37:                                               ; preds = %36
  %38 = load i32, i32* %2, align 4
  %39 = add nsw i32 %38, 1
  store i32 %39, i32* %2, align 4
  br label %15

40:                                               ; preds = %15
  %41 = getelementptr inbounds [14 x i8], [14 x i8]* %5, i64 0, i64 0
  store i8 0, i8* %41, align 1
  %42 = getelementptr inbounds [14 x i8], [14 x i8]* %5, i64 0, i64 0
  %43 = getelementptr inbounds [11 x i8], [11 x i8]* %3, i64 0, i64 0
  %44 = load i32, i32* %1, align 4
  %45 = add nsw i32 %44, 1
  %46 = sext i32 %45 to i64
  %47 = call i8* @strncat(i8* %42, i8* %43, i64 %46) #5
  %48 = getelementptr inbounds [14 x i8], [14 x i8]* %5, i64 0, i64 0
  %49 = getelementptr inbounds [4 x i8], [4 x i8]* %4, i64 0, i64 0
  %50 = call i8* @strcat(i8* %48, i8* %49) #5
  %51 = getelementptr inbounds [14 x i8], [14 x i8]* %5, i64 0, i64 0
  %52 = getelementptr inbounds [11 x i8], [11 x i8]* %3, i64 0, i64 0
  %53 = load i32, i32* %1, align 4
  %54 = sext i32 %53 to i64
  %55 = getelementptr inbounds i8, i8* %52, i64 %54
  %56 = getelementptr inbounds i8, i8* %55, i64 1
  %57 = call i8* @strcat(i8* %51, i8* %56) #5
  %58 = getelementptr inbounds [14 x i8], [14 x i8]* %5, i64 0, i64 0
  %59 = call i32 (i8*, ...) @printf(i8* getelementptr inbounds ([4 x i8], [4 x i8]* @.str.1, i64 0, i64 0), i8* %58)
  br label %7

60:                                               ; preds = %7
  ret void
}

declare dso_local i32 @__isoc99_scanf(i8*, ...) #1

; Function Attrs: nounwind readonly
declare dso_local i64 @strlen(i8*) #2

; Function Attrs: nounwind
declare dso_local i8* @strncat(i8*, i8*, i64) #3

; Function Attrs: nounwind
declare dso_local i8* @strcat(i8*, i8*) #3

declare dso_local i32 @printf(i8*, ...) #1


!llvm.module.flags = !{!0}
!llvm.ident = !{!1}

!0 = !{i32 1, !"wchar_size", i32 4}
!1 = !{!"clang version 10.0.0-4ubuntu1 "}
